; Function Attrs: nounwind uwtable
define range(i32 -15, 1) i32 @idaNlsInit(ptr noundef %0) local_unnamed_addr #0 {
  %2 = getelementptr inbounds nuw i8, ptr %0, i64 1856
  %3 = load ptr, ptr %2, align 8, !tbaa !44
  %.not = icmp eq ptr %3, null
  %4 = getelementptr inbounds nuw i8, ptr %0, i64 1736
  %5 = load ptr, ptr %4, align 8, !tbaa !14
  %.idaNlsLSetup = select i1 %.not, ptr null, ptr @idaNlsLSetup
  %6 = tail call i32 @SUNNonlinSolSetLSetupFn(ptr noundef %5, ptr noundef %.idaNlsLSetup) #3
  %.not14 = icmp eq i32 %6, 0
  br i1 %.not14, label %8, label %7

7:                                                ; preds = %1
  tail call void (ptr, i32, i32, ptr, ptr, ptr, ...) @IDAProcessError(ptr noundef nonnull %0, i32 noundef -22, i32 noundef 204, ptr noundef nonnull @__func__.idaNlsInit, ptr noundef nonnull @.str, ptr noundef nonnull @.str.9) #3
  br label %20

8:                                                ; preds = %1
  %9 = getelementptr inbounds nuw i8, ptr %0, i64 1864
  %10 = load ptr, ptr %9, align 8, !tbaa !45
  %.not15 = icmp eq ptr %10, null
  %11 = getelementptr inbounds nuw i8, ptr %0, i64 1736
  %12 = load ptr, ptr %11, align 8, !tbaa !14
  %.idaNlsLSolve = select i1 %.not15, ptr null, ptr @idaNlsLSolve
  %13 = tail call i32 @SUNNonlinSolSetLSolveFn(ptr noundef %12, ptr noundef %.idaNlsLSolve) #3
  %.not16 = icmp eq i32 %13, 0
  br i1 %.not16, label %15, label %14

14:                                               ; preds = %8
  tail call void (ptr, i32, i32, ptr, ptr, ptr, ...) @IDAProcessError(ptr noundef nonnull %0, i32 noundef -22, i32 noundef 218, ptr noundef nonnull @__func__.idaNlsInit, ptr noundef nonnull @.str, ptr noundef nonnull @.str.10) #3
  br label %20

15:                                               ; preds = %8
  %16 = getelementptr inbounds nuw i8, ptr %0, i64 1736
  %17 = load ptr, ptr %16, align 8, !tbaa !14
  %18 = tail call i32 @SUNNonlinSolInitialize(ptr noundef %17) #3
  %.not17 = icmp eq i32 %18, 0
  br i1 %.not17, label %20, label %19

19:                                               ; preds = %15
  tail call void (ptr, i32, i32, ptr, ptr, ptr, ...) @IDAProcessError(ptr noundef nonnull %0, i32 noundef -22, i32 noundef 228, ptr noundef nonnull @__func__.idaNlsInit, ptr noundef nonnull @.str, ptr noundef nonnull @.str.11) #3
  br label %20

20:                                               ; preds = %15, %19, %14, %7
  %.013 = phi i32 [ -15, %7 ], [ -15, %14 ], [ -15, %19 ], [ 0, %15 ]
  ret i32 %.013
}